; Function Attrs: mustprogress nounwind uwtable
define internal fastcc void @_ZNKSt14default_deleteIN5arrow12_GLOBAL__N_113ArrayExporterEEclEPS2_(ptr noundef %__ptr) unnamed_addr #1 align 2 {
entry:
  %isnull = icmp eq ptr %__ptr, null
  br i1 %isnull, label %delete.end, label %delete.notnull

delete.notnull:                                   ; preds = %entry
  %child_exporters_.i = getelementptr inbounds i8, ptr %__ptr, i64 352
  tail call fastcc void @_ZNSt6vectorIN5arrow12_GLOBAL__N_113ArrayExporterESaIS2_EED2Ev(ptr noundef nonnull align 8 dereferenceable(24) %child_exporters_.i) #24
  %dict_exporter_.i = getelementptr inbounds i8, ptr %__ptr, i64 344
  tail call fastcc void @_ZNSt10unique_ptrIN5arrow12_GLOBAL__N_113ArrayExporterESt14default_deleteIS2_EED2Ev(ptr noundef nonnull align 8 dereferenceable(8) %dict_exporter_.i) #24
  tail call fastcc void @_ZN5arrow12_GLOBAL__N_124ExportedArrayPrivateDataD2Ev(ptr noundef nonnull align 8 dereferenceable(344) %__ptr) #24
  tail call void @_ZdlPv(ptr noundef nonnull %__ptr) #26
  br label %delete.end

delete.end:                                       ; preds = %delete.notnull, %entry
  ret void
}